target datalayout = "e-m:e-p270:32:32-p271:32:32-p272:64:64-i64:64-i128:128-f80:128-n8:16:32:64-S128"
target triple = "x86_64-pc-linux-gnu"

%struct.PJconsts = type { ptr, ptr, ptr, ptr, ptr, ptr, ptr, ptr, ptr, ptr, ptr, ptr, i32, ptr, ptr, ptr, ptr, ptr, ptr, ptr, ptr, double, double, double, double, double, double, double, double, double, double, double, double, double, double, double, double, double, double, double, double, double, double, i32, i32, i32, i32, i32, i32, i32, i32, i32, i32, i32, ptr, ptr, ptr, ptr, ptr, ptr, double, double, double, double, double, double, double, double, double, double, double, i32, [7 x double], i32, ptr, ptr, double, double, i32, [4 x i8], %"class.std::shared_ptr", i8, double, i8, %"class.std::__cxx11::basic_string", %"class.std::__cxx11::basic_string", %"class.std::__cxx11::basic_string", i8, %"class.std::vector", i32, %"class.std::vector.3", i32, i8, i8, i8, ptr }
%"class.std::shared_ptr" = type { %"class.std::__shared_ptr" }
%"class.std::__shared_ptr" = type { ptr, %"class.std::__shared_count" }
%"class.std::__shared_count" = type { ptr }
%"class.std::__cxx11::basic_string" = type { %"struct.std::__cxx11::basic_string<char>::_Alloc_hider", i64, %union.anon }
%"struct.std::__cxx11::basic_string<char>::_Alloc_hider" = type { ptr }
%union.anon = type { i64, [8 x i8] }
%"class.std::vector" = type { %"struct.std::_Vector_base" }
%"struct.std::_Vector_base" = type { %"struct.std::_Vector_base<osgeo::proj::operation::GridDescription, std::allocator<osgeo::proj::operation::GridDescription>>::_Vector_impl" }
%"struct.std::_Vector_base<osgeo::proj::operation::GridDescription, std::allocator<osgeo::proj::operation::GridDescription>>::_Vector_impl" = type { %"struct.std::_Vector_base<osgeo::proj::operation::GridDescription, std::allocator<osgeo::proj::operation::GridDescription>>::_Vector_impl_data" }
%"struct.std::_Vector_base<osgeo::proj::operation::GridDescription, std::allocator<osgeo::proj::operation::GridDescription>>::_Vector_impl_data" = type { ptr, ptr, ptr }
%"class.std::vector.3" = type { %"struct.std::_Vector_base.4" }
%"struct.std::_Vector_base.4" = type { %"struct.std::_Vector_base<PJCoordOperation, std::allocator<PJCoordOperation>>::_Vector_impl" }
%"struct.std::_Vector_base<PJCoordOperation, std::allocator<PJCoordOperation>>::_Vector_impl" = type { %"struct.std::_Vector_base<PJCoordOperation, std::allocator<PJCoordOperation>>::_Vector_impl_data" }
%"struct.std::_Vector_base<PJCoordOperation, std::allocator<PJCoordOperation>>::_Vector_impl_data" = type { ptr, ptr, ptr }
%"struct.(anonymous namespace)::pj_ortho_data" = type { double, double, double, double, double, i32, double, double }
%struct.PJ_LP = type { double, double }
%struct.PJ_XY = type { double, double }

@.str.2 = private unnamed_addr constant [57 x i8] c"Coordinate (%.3f, %.3f) is on the unprojected hemisphere\00", align 1

; Function Attrs: mustprogress uwtable
define internal { double, double } @_ZL13forward_errorP8PJconsts5PJ_LP5PJ_XY(ptr noundef %0, double %1, double %2, double %3, double %4) #0 {
  %6 = alloca %struct.PJ_XY, align 8
  %7 = alloca %struct.PJ_LP, align 8
  %8 = alloca %struct.PJ_XY, align 8
  %9 = alloca ptr, align 8
  %10 = getelementptr inbounds nuw { double, double }, ptr %7, i32 0, i32 0
  store double %1, ptr %10, align 8
  %11 = getelementptr inbounds nuw { double, double }, ptr %7, i32 0, i32 1
  store double %2, ptr %11, align 8
  %12 = getelementptr inbounds nuw { double, double }, ptr %8, i32 0, i32 0
  store double %3, ptr %12, align 8
  %13 = getelementptr inbounds nuw { double, double }, ptr %8, i32 0, i32 1
  store double %4, ptr %13, align 8
  store ptr %0, ptr %9, align 8, !tbaa !3
  %14 = load ptr, ptr %9, align 8, !tbaa !3
  %15 = call i32 @proj_errno_set(ptr noundef %14, i32 noundef 2050)
  %16 = load ptr, ptr %9, align 8, !tbaa !3
  %17 = getelementptr inbounds nuw %struct.PJ_LP, ptr %7, i32 0, i32 0
  %18 = load double, ptr %17, align 8, !tbaa !63
  %19 = call double @proj_todeg(double noundef %18)
  %20 = getelementptr inbounds nuw %struct.PJ_LP, ptr %7, i32 0, i32 1
  %21 = load double, ptr %20, align 8, !tbaa !65
  %22 = call double @proj_todeg(double noundef %21)
  call void (ptr, ptr, ...) @_Z14proj_log_traceP8PJconstsPKcz(ptr noundef %16, ptr noundef @.str.2, double noundef %19, double noundef %22)
  call void @llvm.memcpy.p0.p0.i64(ptr align 8 %6, ptr align 8 %8, i64 16, i1 false), !tbaa.struct !70
  %23 = load { double, double }, ptr %6, align 8
  ret { double, double } %23
}

; Function Attrs: mustprogress uwtable
define internal { double, double } @_ZL15ortho_s_forward5PJ_LPP8PJconsts(double %0, double %1, ptr noundef %2) #0 {
  %4 = alloca %struct.PJ_XY, align 8
  %5 = alloca %struct.PJ_LP, align 8
  %6 = alloca ptr, align 8
  %7 = alloca %struct.PJ_XY, align 8
  %8 = alloca ptr, align 8
  %9 = alloca double, align 8
  %10 = alloca double, align 8
  %11 = alloca double, align 8
  %12 = alloca %struct.PJ_LP, align 8
  %13 = alloca %struct.PJ_XY, align 8
  %14 = alloca i32, align 4
  %15 = alloca %struct.PJ_LP, align 8
  %16 = alloca %struct.PJ_XY, align 8
  %17 = alloca %struct.PJ_LP, align 8
  %18 = alloca %struct.PJ_XY, align 8
  %19 = alloca double, align 8
  %20 = alloca double, align 8
  %21 = getelementptr inbounds nuw { double, double }, ptr %5, i32 0, i32 0
  store double %0, ptr %21, align 8
  %22 = getelementptr inbounds nuw { double, double }, ptr %5, i32 0, i32 1
  store double %1, ptr %22, align 8
  store ptr %2, ptr %6, align 8, !tbaa !3
  call void @llvm.lifetime.start.p0(i64 16, ptr %7) #8
  call void @llvm.lifetime.start.p0(i64 8, ptr %8) #8
  %23 = load ptr, ptr %6, align 8, !tbaa !3
  %24 = getelementptr inbounds nuw %struct.PJconsts, ptr %23, i32 0, i32 11
  %25 = load ptr, ptr %24, align 8, !tbaa !43
  store ptr %25, ptr %8, align 8, !tbaa !41
  call void @llvm.lifetime.start.p0(i64 8, ptr %9) #8
  call void @llvm.lifetime.start.p0(i64 8, ptr %10) #8
  call void @llvm.lifetime.start.p0(i64 8, ptr %11) #8
  %26 = getelementptr inbounds nuw %struct.PJ_XY, ptr %7, i32 0, i32 0
  store double 0x7FF0000000000000, ptr %26, align 8, !tbaa !66
  %27 = getelementptr inbounds nuw %struct.PJ_XY, ptr %7, i32 0, i32 1
  store double 0x7FF0000000000000, ptr %27, align 8, !tbaa !68
  %28 = getelementptr inbounds nuw %struct.PJ_LP, ptr %5, i32 0, i32 1
  %29 = load double, ptr %28, align 8, !tbaa !65
  %30 = call double @cos(double noundef %29) #8, !tbaa !45
  store double %30, ptr %10, align 8, !tbaa !60
  %31 = getelementptr inbounds nuw %struct.PJ_LP, ptr %5, i32 0, i32 0
  %32 = load double, ptr %31, align 8, !tbaa !63
  %33 = call double @cos(double noundef %32) #8, !tbaa !45
  store double %33, ptr %9, align 8, !tbaa !60
  %34 = load ptr, ptr %8, align 8, !tbaa !41
  %35 = getelementptr inbounds nuw %"struct.(anonymous namespace)::pj_ortho_data", ptr %34, i32 0, i32 5
  %36 = load i32, ptr %35, align 8, !tbaa !50
  switch i32 %36, label %142 [
    i32 2, label %37
    i32 3, label %62
    i32 0, label %109
    i32 1, label %112
  ]

37:                                               ; preds = %3
  %38 = load double, ptr %10, align 8, !tbaa !60
  %39 = load double, ptr %9, align 8, !tbaa !60
  %40 = fmul double %38, %39
  %41 = fcmp olt double %40, -1.000000e-10
  br i1 %41, label %42, label %57

42:                                               ; preds = %37
  %43 = load ptr, ptr %6, align 8, !tbaa !3
  call void @llvm.memcpy.p0.p0.i64(ptr align 8 %12, ptr align 8 %5, i64 16, i1 false), !tbaa.struct !70
  call void @llvm.memcpy.p0.p0.i64(ptr align 8 %13, ptr align 8 %7, i64 16, i1 false), !tbaa.struct !70
  %44 = getelementptr inbounds nuw { double, double }, ptr %12, i32 0, i32 0
  %45 = load double, ptr %44, align 8
  %46 = getelementptr inbounds nuw { double, double }, ptr %12, i32 0, i32 1
  %47 = load double, ptr %46, align 8
  %48 = getelementptr inbounds nuw { double, double }, ptr %13, i32 0, i32 0
  %49 = load double, ptr %48, align 8
  %50 = getelementptr inbounds nuw { double, double }, ptr %13, i32 0, i32 1
  %51 = load double, ptr %50, align 8
  %52 = call { double, double } @_ZL13forward_errorP8PJconsts5PJ_LP5PJ_XY(ptr noundef %43, double %45, double %47, double %49, double %51)
  %53 = getelementptr inbounds nuw { double, double }, ptr %4, i32 0, i32 0
  %54 = extractvalue { double, double } %52, 0
  store double %54, ptr %53, align 8
  %55 = getelementptr inbounds nuw { double, double }, ptr %4, i32 0, i32 1
  %56 = extractvalue { double, double } %52, 1
  store double %56, ptr %55, align 8
  store i32 1, ptr %14, align 4
  br label %184

57:                                               ; preds = %37
  %58 = getelementptr inbounds nuw %struct.PJ_LP, ptr %5, i32 0, i32 1
  %59 = load double, ptr %58, align 8, !tbaa !65
  %60 = call double @sin(double noundef %59) #8, !tbaa !45
  %61 = getelementptr inbounds nuw %struct.PJ_XY, ptr %7, i32 0, i32 1
  store double %60, ptr %61, align 8, !tbaa !68
  br label %142

62:                                               ; preds = %3
  %63 = getelementptr inbounds nuw %struct.PJ_LP, ptr %5, i32 0, i32 1
  %64 = load double, ptr %63, align 8, !tbaa !65
  %65 = call double @sin(double noundef %64) #8, !tbaa !45
  store double %65, ptr %11, align 8, !tbaa !60
  %66 = load ptr, ptr %8, align 8, !tbaa !41
  %67 = getelementptr inbounds nuw %"struct.(anonymous namespace)::pj_ortho_data", ptr %66, i32 0, i32 0
  %68 = load double, ptr %67, align 8, !tbaa !46
  %69 = load double, ptr %11, align 8, !tbaa !60
  %70 = load ptr, ptr %8, align 8, !tbaa !41
  %71 = getelementptr inbounds nuw %"struct.(anonymous namespace)::pj_ortho_data", ptr %70, i32 0, i32 1
  %72 = load double, ptr %71, align 8, !tbaa !49
  %73 = load double, ptr %10, align 8, !tbaa !60
  %74 = fmul double %72, %73
  %75 = load double, ptr %9, align 8, !tbaa !60
  %76 = fmul double %74, %75
  %77 = call double @llvm.fmuladd.f64(double %68, double %69, double %76)
  %78 = fcmp olt double %77, -1.000000e-10
  br i1 %78, label %79, label %94

79:                                               ; preds = %62
  %80 = load ptr, ptr %6, align 8, !tbaa !3
  call void @llvm.memcpy.p0.p0.i64(ptr align 8 %15, ptr align 8 %5, i64 16, i1 false), !tbaa.struct !70
  call void @llvm.memcpy.p0.p0.i64(ptr align 8 %16, ptr align 8 %7, i64 16, i1 false), !tbaa.struct !70
  %81 = getelementptr inbounds nuw { double, double }, ptr %15, i32 0, i32 0
  %82 = load double, ptr %81, align 8
  %83 = getelementptr inbounds nuw { double, double }, ptr %15, i32 0, i32 1
  %84 = load double, ptr %83, align 8
  %85 = getelementptr inbounds nuw { double, double }, ptr %16, i32 0, i32 0
  %86 = load double, ptr %85, align 8
  %87 = getelementptr inbounds nuw { double, double }, ptr %16, i32 0, i32 1
  %88 = load double, ptr %87, align 8
  %89 = call { double, double } @_ZL13forward_errorP8PJconsts5PJ_LP5PJ_XY(ptr noundef %80, double %82, double %84, double %86, double %88)
  %90 = getelementptr inbounds nuw { double, double }, ptr %4, i32 0, i32 0
  %91 = extractvalue { double, double } %89, 0
  store double %91, ptr %90, align 8
  %92 = getelementptr inbounds nuw { double, double }, ptr %4, i32 0, i32 1
  %93 = extractvalue { double, double } %89, 1
  store double %93, ptr %92, align 8
  store i32 1, ptr %14, align 4
  br label %184

94:                                               ; preds = %62
  %95 = load ptr, ptr %8, align 8, !tbaa !41
  %96 = getelementptr inbounds nuw %"struct.(anonymous namespace)::pj_ortho_data", ptr %95, i32 0, i32 1
  %97 = load double, ptr %96, align 8, !tbaa !49
  %98 = load double, ptr %11, align 8, !tbaa !60
  %99 = load ptr, ptr %8, align 8, !tbaa !41
  %100 = getelementptr inbounds nuw %"struct.(anonymous namespace)::pj_ortho_data", ptr %99, i32 0, i32 0
  %101 = load double, ptr %100, align 8, !tbaa !46
  %102 = load double, ptr %10, align 8, !tbaa !60
  %103 = fmul double %101, %102
  %104 = load double, ptr %9, align 8, !tbaa !60
  %105 = fmul double %103, %104
  %106 = fneg double %105
  %107 = call double @llvm.fmuladd.f64(double %97, double %98, double %106)
  %108 = getelementptr inbounds nuw %struct.PJ_XY, ptr %7, i32 0, i32 1
  store double %107, ptr %108, align 8, !tbaa !68
  br label %142

109:                                              ; preds = %3
  %110 = load double, ptr %9, align 8, !tbaa !60
  %111 = fneg double %110
  store double %111, ptr %9, align 8, !tbaa !60
  br label %112

112:                                              ; preds = %3, %109
  %113 = getelementptr inbounds nuw %struct.PJ_LP, ptr %5, i32 0, i32 1
  %114 = load double, ptr %113, align 8, !tbaa !65
  %115 = load ptr, ptr %6, align 8, !tbaa !3
  %116 = getelementptr inbounds nuw %struct.PJconsts, ptr %115, i32 0, i32 61
  %117 = load double, ptr %116, align 8, !tbaa !44
  %118 = fsub double %114, %117
  %119 = call double @llvm.fabs.f64(double %118)
  %120 = fsub double %119, 1.000000e-10
  %121 = fcmp ogt double %120, 0x3FF921FB54442D18
  br i1 %121, label %122, label %137

122:                                              ; preds = %112
  %123 = load ptr, ptr %6, align 8, !tbaa !3
  call void @llvm.memcpy.p0.p0.i64(ptr align 8 %17, ptr align 8 %5, i64 16, i1 false), !tbaa.struct !70
  call void @llvm.memcpy.p0.p0.i64(ptr align 8 %18, ptr align 8 %7, i64 16, i1 false), !tbaa.struct !70
  %124 = getelementptr inbounds nuw { double, double }, ptr %17, i32 0, i32 0
  %125 = load double, ptr %124, align 8
  %126 = getelementptr inbounds nuw { double, double }, ptr %17, i32 0, i32 1
  %127 = load double, ptr %126, align 8
  %128 = getelementptr inbounds nuw { double, double }, ptr %18, i32 0, i32 0
  %129 = load double, ptr %128, align 8
  %130 = getelementptr inbounds nuw { double, double }, ptr %18, i32 0, i32 1
  %131 = load double, ptr %130, align 8
  %132 = call { double, double } @_ZL13forward_errorP8PJconsts5PJ_LP5PJ_XY(ptr noundef %123, double %125, double %127, double %129, double %131)
  %133 = getelementptr inbounds nuw { double, double }, ptr %4, i32 0, i32 0
  %134 = extractvalue { double, double } %132, 0
  store double %134, ptr %133, align 8
  %135 = getelementptr inbounds nuw { double, double }, ptr %4, i32 0, i32 1
  %136 = extractvalue { double, double } %132, 1
  store double %136, ptr %135, align 8
  store i32 1, ptr %14, align 4
  br label %184

137:                                              ; preds = %112
  %138 = load double, ptr %10, align 8, !tbaa !60
  %139 = load double, ptr %9, align 8, !tbaa !60
  %140 = fmul double %138, %139
  %141 = getelementptr inbounds nuw %struct.PJ_XY, ptr %7, i32 0, i32 1
  store double %140, ptr %141, align 8, !tbaa !68
  br label %142

142:                                              ; preds = %3, %137, %94, %57
  %143 = load double, ptr %10, align 8, !tbaa !60
  %144 = getelementptr inbounds nuw %struct.PJ_LP, ptr %5, i32 0, i32 0
  %145 = load double, ptr %144, align 8, !tbaa !63
  %146 = call double @sin(double noundef %145) #8, !tbaa !45
  %147 = fmul double %143, %146
  %148 = getelementptr inbounds nuw %struct.PJ_XY, ptr %7, i32 0, i32 0
  store double %147, ptr %148, align 8, !tbaa !66
  call void @llvm.lifetime.start.p0(i64 8, ptr %19) #8
  %149 = getelementptr inbounds nuw %struct.PJ_XY, ptr %7, i32 0, i32 0
  %150 = load double, ptr %149, align 8, !tbaa !66
  store double %150, ptr %19, align 8, !tbaa !60
  call void @llvm.lifetime.start.p0(i64 8, ptr %20) #8
  %151 = getelementptr inbounds nuw %struct.PJ_XY, ptr %7, i32 0, i32 1
  %152 = load double, ptr %151, align 8, !tbaa !68
  store double %152, ptr %20, align 8, !tbaa !60
  %153 = load double, ptr %19, align 8, !tbaa !60
  %154 = load ptr, ptr %8, align 8, !tbaa !41
  %155 = getelementptr inbounds nuw %"struct.(anonymous namespace)::pj_ortho_data", ptr %154, i32 0, i32 7
  %156 = load double, ptr %155, align 8, !tbaa !62
  %157 = load double, ptr %20, align 8, !tbaa !60
  %158 = load ptr, ptr %8, align 8, !tbaa !41
  %159 = getelementptr inbounds nuw %"struct.(anonymous namespace)::pj_ortho_data", ptr %158, i32 0, i32 6
  %160 = load double, ptr %159, align 8, !tbaa !61
  %161 = fmul double %157, %160
  %162 = fneg double %161
  %163 = call double @llvm.fmuladd.f64(double %153, double %156, double %162)
  %164 = load ptr, ptr %6, align 8, !tbaa !3
  %165 = getelementptr inbounds nuw %struct.PJconsts, ptr %164, i32 0, i32 66
  %166 = load double, ptr %165, align 8, !tbaa !69
  %167 = fmul double %163, %166
  %168 = getelementptr inbounds nuw %struct.PJ_XY, ptr %7, i32 0, i32 0
  store double %167, ptr %168, align 8, !tbaa !66
  %169 = load double, ptr %19, align 8, !tbaa !60
  %170 = load ptr, ptr %8, align 8, !tbaa !41
  %171 = getelementptr inbounds nuw %"struct.(anonymous namespace)::pj_ortho_data", ptr %170, i32 0, i32 6
  %172 = load double, ptr %171, align 8, !tbaa !61
  %173 = load double, ptr %20, align 8, !tbaa !60
  %174 = load ptr, ptr %8, align 8, !tbaa !41
  %175 = getelementptr inbounds nuw %"struct.(anonymous namespace)::pj_ortho_data", ptr %174, i32 0, i32 7
  %176 = load double, ptr %175, align 8, !tbaa !62
  %177 = fmul double %173, %176
  %178 = call double @llvm.fmuladd.f64(double %169, double %172, double %177)
  %179 = load ptr, ptr %6, align 8, !tbaa !3
  %180 = getelementptr inbounds nuw %struct.PJconsts, ptr %179, i32 0, i32 66
  %181 = load double, ptr %180, align 8, !tbaa !69
  %182 = fmul double %178, %181
  %183 = getelementptr inbounds nuw %struct.PJ_XY, ptr %7, i32 0, i32 1
  store double %182, ptr %183, align 8, !tbaa !68
  call void @llvm.memcpy.p0.p0.i64(ptr align 8 %4, ptr align 8 %7, i64 16, i1 false), !tbaa.struct !70
  store i32 1, ptr %14, align 4
  call void @llvm.lifetime.end.p0(i64 8, ptr %20) #8
  call void @llvm.lifetime.end.p0(i64 8, ptr %19) #8
  br label %184

184:                                              ; preds = %142, %122, %79, %42
  call void @llvm.lifetime.end.p0(i64 8, ptr %11) #8
  call void @llvm.lifetime.end.p0(i64 8, ptr %10) #8
  call void @llvm.lifetime.end.p0(i64 8, ptr %9) #8
  call void @llvm.lifetime.end.p0(i64 8, ptr %8) #8
  call void @llvm.lifetime.end.p0(i64 16, ptr %7) #8
  %185 = load { double, double }, ptr %4, align 8
  ret { double, double } %185
}