; Function Attrs: mustprogress uwtable
define internal { double, double } @_ZL15ortho_s_forward5PJ_LPP8PJconsts(double %0, double %1, ptr noundef %2) #0 {
  %4 = getelementptr inbounds nuw i8, ptr %2, i64 88
  %5 = load ptr, ptr %4, align 8, !tbaa !40
  %6 = tail call double @cos(double noundef %1) #6, !tbaa !42
  %7 = tail call double @cos(double noundef %0) #6, !tbaa !42
  %8 = getelementptr inbounds nuw i8, ptr %5, i64 40
  %9 = load i32, ptr %8, align 8, !tbaa !47
  switch i32 %9, label %52 [
    i32 2, label %10
    i32 3, label %19
    i32 0, label %37
    i32 1, label %39
  ]

10:                                               ; preds = %3
  %11 = fmul double %6, %7
  %12 = fcmp olt double %11, -1.000000e-10
  br i1 %12, label %13, label %17

13:                                               ; preds = %10
  %14 = tail call i32 @proj_errno_set(ptr noundef nonnull %2, i32 noundef 2050)
  %15 = tail call double @proj_todeg(double noundef %0)
  %16 = tail call double @proj_todeg(double noundef %1)
  tail call void (ptr, ptr, ...) @_Z14proj_log_traceP8PJconstsPKcz(ptr noundef nonnull %2, ptr noundef nonnull @.str.2, double noundef %15, double noundef %16)
  br label %68

17:                                               ; preds = %10
  %18 = tail call double @sin(double noundef %1) #6, !tbaa !42
  br label %52

19:                                               ; preds = %3
  %20 = tail call double @sin(double noundef %1) #6, !tbaa !42
  %21 = load double, ptr %5, align 8, !tbaa !43
  %22 = getelementptr inbounds nuw i8, ptr %5, i64 8
  %23 = load double, ptr %22, align 8, !tbaa !46
  %24 = fmul double %6, %23
  %25 = fmul double %7, %24
  %26 = tail call double @llvm.fmuladd.f64(double %21, double %20, double %25)
  %27 = fcmp olt double %26, -1.000000e-10
  br i1 %27, label %28, label %32

28:                                               ; preds = %19
  %29 = tail call i32 @proj_errno_set(ptr noundef nonnull %2, i32 noundef 2050)
  %30 = tail call double @proj_todeg(double noundef %0)
  %31 = tail call double @proj_todeg(double noundef %1)
  tail call void (ptr, ptr, ...) @_Z14proj_log_traceP8PJconstsPKcz(ptr noundef nonnull %2, ptr noundef nonnull @.str.2, double noundef %30, double noundef %31)
  br label %68

32:                                               ; preds = %19
  %33 = fmul double %6, %21
  %34 = fneg double %7
  %35 = fmul double %33, %34
  %36 = tail call double @llvm.fmuladd.f64(double %23, double %20, double %35)
  br label %52

37:                                               ; preds = %3
  %38 = fneg double %7
  br label %39

39:                                               ; preds = %37, %3
  %.0 = phi double [ %7, %3 ], [ %38, %37 ]
  %40 = getelementptr inbounds nuw i8, ptr %2, i64 448
  %41 = load double, ptr %40, align 8, !tbaa !41
  %42 = fsub double %1, %41
  %43 = tail call double @llvm.fabs.f64(double %42)
  %44 = fadd double %43, -1.000000e-10
  %45 = fcmp ogt double %44, 0x3FF921FB54442D18
  br i1 %45, label %46, label %50

46:                                               ; preds = %39
  %47 = tail call i32 @proj_errno_set(ptr noundef nonnull %2, i32 noundef 2050)
  %48 = tail call double @proj_todeg(double noundef %0)
  %49 = tail call double @proj_todeg(double noundef %1)
  tail call void (ptr, ptr, ...) @_Z14proj_log_traceP8PJconstsPKcz(ptr noundef nonnull %2, ptr noundef nonnull @.str.2, double noundef %48, double noundef %49)
  br label %68

50:                                               ; preds = %39
  %51 = fmul double %6, %.0
  br label %52

52:                                               ; preds = %50, %32, %17, %3
  %.sroa.10.0 = phi double [ 0x7FF0000000000000, %3 ], [ %51, %50 ], [ %36, %32 ], [ %18, %17 ]
  %53 = tail call double @sin(double noundef %0) #6, !tbaa !42
  %54 = fmul double %6, %53
  %55 = getelementptr inbounds nuw i8, ptr %5, i64 56
  %56 = load double, ptr %55, align 8, !tbaa !57
  %57 = getelementptr inbounds nuw i8, ptr %5, i64 48
  %58 = load double, ptr %57, align 8, !tbaa !56
  %59 = fneg double %58
  %60 = fmul double %.sroa.10.0, %59
  %61 = tail call double @llvm.fmuladd.f64(double %54, double %56, double %60)
  %62 = getelementptr inbounds nuw i8, ptr %2, i64 488
  %63 = load double, ptr %62, align 8, !tbaa !58
  %64 = fmul double %63, %61
  %65 = fmul double %.sroa.10.0, %56
  %66 = tail call double @llvm.fmuladd.f64(double %54, double %58, double %65)
  %67 = fmul double %66, %63
  br label %68

68:                                               ; preds = %52, %46, %28, %13
  %.sroa.048.0 = phi double [ %64, %52 ], [ 0x7FF0000000000000, %46 ], [ 0x7FF0000000000000, %28 ], [ 0x7FF0000000000000, %13 ]
  %.sroa.5.0 = phi double [ %67, %52 ], [ 0x7FF0000000000000, %46 ], [ 0x7FF0000000000000, %28 ], [ 0x7FF0000000000000, %13 ]
  %.fca.0.insert = insertvalue { double, double } poison, double %.sroa.048.0, 0
  %.fca.1.insert = insertvalue { double, double } %.fca.0.insert, double %.sroa.5.0, 1
  ret { double, double } %.fca.1.insert
}